ARM GAS  C:\Users\Piimps\AppData\Local\Temp\ccJcthr3.s 			page 1


   1              		.syntax unified
   2              		.cpu cortex-m3
   3              		.fpu softvfp
   4              		.eabi_attribute 20, 1
   5              		.eabi_attribute 21, 1
   6              		.eabi_attribute 23, 3
   7              		.eabi_attribute 24, 1
   8              		.eabi_attribute 25, 1
   9              		.eabi_attribute 26, 1
  10              		.eabi_attribute 30, 1
  11              		.eabi_attribute 34, 1
  12              		.eabi_attribute 18, 4
  13              		.thumb
  14              		.syntax unified
  15              		.file	"main.c"
  16              		.text
  17              	.Ltext0:
  18              		.cfi_sections	.debug_frame
  19              		.global	__aeabi_i2f
  20              		.global	__aeabi_fmul
  21              		.global	__aeabi_fdiv
  22              		.global	__aeabi_fadd
  23              		.global	__aeabi_f2uiz
  24              		.section	.text.Timer_Handler,"ax",%progbits
  25              		.align	2
  26              		.global	Timer_Handler
  27              		.thumb
  28              		.thumb_func
  29              		.type	Timer_Handler, %function
  30              	Timer_Handler:
  31              	.LFB64:
  32              		.file 1 "main.c"
   1:main.c        **** /* ========================================
   2:main.c        ****  *
   3:main.c        ****  * Copyright YOUR COMPANY, THE YEAR
   4:main.c        ****  * All Rights Reserved
   5:main.c        ****  * UNPUBLISHED, LICENSED SOFTWARE.
   6:main.c        ****  *
   7:main.c        ****  * CONFIDENTIAL AND PROPRIETARY INFORMATION
   8:main.c        ****  * WHICH IS THE PROPERTY OF your company.
   9:main.c        ****  *
  10:main.c        ****  * ========================================
  11:main.c        **** */
  12:main.c        **** #include "project.h"
  13:main.c        **** #include "keypad.h"
  14:main.c        **** #include <math.h>
  15:main.c        **** #include <stdio.h>
  16:main.c        **** #include <stdlib.h>
  17:main.c        **** 
  18:main.c        **** int static i;
  19:main.c        **** float static signal[100];
  20:main.c        **** int clock=0;
  21:main.c        **** int clock2=0;
  22:main.c        **** _Bool flag = 0;
  23:main.c        **** _Bool pressSW4 = 0;
  24:main.c        **** _Bool lightOn;
  25:main.c        **** 
ARM GAS  C:\Users\Piimps\AppData\Local\Temp\ccJcthr3.s 			page 2


  26:main.c        **** //adc potentiometer
  27:main.c        **** int32 volatile static adc_value;
  28:main.c        **** float adc_value_float;
  29:main.c        **** 
  30:main.c        **** CY_ISR(Timer_Handler) 
  31:main.c        **** {
  33              		.loc 1 31 0
  34              		.cfi_startproc
  35              		@ args = 0, pretend = 0, frame = 0
  36              		@ frame_needed = 0, uses_anonymous_args = 0
  37 0000 38B5     		push	{r3, r4, r5, lr}
  38              		.cfi_def_cfa_offset 16
  39              		.cfi_offset 3, -16
  40              		.cfi_offset 4, -12
  41              		.cfi_offset 5, -8
  42              		.cfi_offset 14, -4
  32:main.c        ****     float val = signal[i] * (float)adc_value / 3311 + 128;
  43              		.loc 1 32 0
  44 0002 1B4C     		ldr	r4, .L4
  45 0004 D4F89031 		ldr	r3, [r4, #400]
  46 0008 54F82350 		ldr	r5, [r4, r3, lsl #2]	@ float
  47 000c D4F89401 		ldr	r0, [r4, #404]
  48 0010 FFF7FEFF 		bl	__aeabi_i2f
  49              	.LVL0:
  50 0014 0146     		mov	r1, r0
  51 0016 2846     		mov	r0, r5
  52 0018 FFF7FEFF 		bl	__aeabi_fmul
  53              	.LVL1:
  54 001c 1549     		ldr	r1, .L4+4
  55 001e FFF7FEFF 		bl	__aeabi_fdiv
  56              	.LVL2:
  57 0022 4FF08641 		mov	r1, #1124073472
  58 0026 FFF7FEFF 		bl	__aeabi_fadd
  59              	.LVL3:
  33:main.c        ****     VDAC_SetValue(val);
  60              		.loc 1 33 0
  61 002a FFF7FEFF 		bl	__aeabi_f2uiz
  62              	.LVL4:
  63 002e C0B2     		uxtb	r0, r0
  64 0030 FFF7FEFF 		bl	VDAC_SetValue
  65              	.LVL5:
  34:main.c        ****     VDAC_SetValue(signal[i] * 50 + 128);
  66              		.loc 1 34 0
  67 0034 D4F89031 		ldr	r3, [r4, #400]
  68 0038 0F49     		ldr	r1, .L4+8
  69 003a 54F82300 		ldr	r0, [r4, r3, lsl #2]	@ float
  70 003e FFF7FEFF 		bl	__aeabi_fmul
  71              	.LVL6:
  72 0042 4FF08641 		mov	r1, #1124073472
  73 0046 FFF7FEFF 		bl	__aeabi_fadd
  74              	.LVL7:
  75 004a FFF7FEFF 		bl	__aeabi_f2uiz
  76              	.LVL8:
  77 004e C0B2     		uxtb	r0, r0
  78 0050 FFF7FEFF 		bl	VDAC_SetValue
  79              	.LVL9:
  35:main.c        ****     i++;
ARM GAS  C:\Users\Piimps\AppData\Local\Temp\ccJcthr3.s 			page 3


  80              		.loc 1 35 0
  81 0054 D4F89031 		ldr	r3, [r4, #400]
  82 0058 0133     		adds	r3, r3, #1
  83 005a C4F89031 		str	r3, [r4, #400]
  36:main.c        ****     if (i == 100) i = 0;
  84              		.loc 1 36 0
  85 005e 642B     		cmp	r3, #100
  86 0060 02D1     		bne	.L2
  87              		.loc 1 36 0 is_stmt 0 discriminator 1
  88 0062 0022     		movs	r2, #0
  89 0064 C4F89021 		str	r2, [r4, #400]
  90              	.L2:
  37:main.c        ****     Timer_ReadStatusRegister();
  91              		.loc 1 37 0 is_stmt 1
  92 0068 FFF7FEFF 		bl	Timer_ReadStatusRegister
  93              	.LVL10:
  94 006c 38BD     		pop	{r3, r4, r5, pc}
  95              	.L5:
  96 006e 00BF     		.align	2
  97              	.L4:
  98 0070 00000000 		.word	.LANCHOR0
  99 0074 00F04E45 		.word	1162801152
 100 0078 00004842 		.word	1112014848
 101              		.cfi_endproc
 102              	.LFE64:
 103              		.size	Timer_Handler, .-Timer_Handler
 104              		.section	.text.SW4_Handler,"ax",%progbits
 105              		.align	2
 106              		.global	SW4_Handler
 107              		.thumb
 108              		.thumb_func
 109              		.type	SW4_Handler, %function
 110              	SW4_Handler:
 111              	.LFB65:
  38:main.c        **** }
  39:main.c        **** 
  40:main.c        **** CY_ISR( SW4_Handler)
  41:main.c        **** {
 112              		.loc 1 41 0
 113              		.cfi_startproc
 114              		@ args = 0, pretend = 0, frame = 0
 115              		@ frame_needed = 0, uses_anonymous_args = 0
 116 0000 08B5     		push	{r3, lr}
 117              		.cfi_def_cfa_offset 8
 118              		.cfi_offset 3, -8
 119              		.cfi_offset 14, -4
  42:main.c        ****  flag =!flag;   
 120              		.loc 1 42 0
 121 0002 054A     		ldr	r2, .L8
 122 0004 92F89831 		ldrb	r3, [r2, #408]	@ zero_extendqisi2
 123 0008 83F00103 		eor	r3, r3, #1
 124 000c 82F89831 		strb	r3, [r2, #408]
  43:main.c        ****  SW4_ClearInterrupt();
 125              		.loc 1 43 0
 126 0010 FFF7FEFF 		bl	SW4_ClearInterrupt
 127              	.LVL11:
 128 0014 08BD     		pop	{r3, pc}
ARM GAS  C:\Users\Piimps\AppData\Local\Temp\ccJcthr3.s 			page 4


 129              	.L9:
 130 0016 00BF     		.align	2
 131              	.L8:
 132 0018 00000000 		.word	.LANCHOR0
 133              		.cfi_endproc
 134              	.LFE65:
 135              		.size	SW4_Handler, .-SW4_Handler
 136              		.section	.text.appuiSW1,"ax",%progbits
 137              		.align	2
 138              		.global	appuiSW1
 139              		.thumb
 140              		.thumb_func
 141              		.type	appuiSW1, %function
 142              	appuiSW1:
 143              	.LFB66:
  44:main.c        **** }
  45:main.c        **** 
  46:main.c        **** 
  47:main.c        ****   // Function to turn on all LEDs when you press on SW1
  48:main.c        ****  void appuiSW1() 
  49:main.c        **** {
 144              		.loc 1 49 0
 145              		.cfi_startproc
 146              		@ args = 0, pretend = 0, frame = 0
 147              		@ frame_needed = 0, uses_anonymous_args = 0
 148 0000 08B5     		push	{r3, lr}
 149              		.cfi_def_cfa_offset 8
 150              		.cfi_offset 3, -8
 151              		.cfi_offset 14, -4
  50:main.c        ****     if( SW1_Read() != 0) { // When the SW1 is press
 152              		.loc 1 50 0
 153 0002 FFF7FEFF 		bl	SW1_Read
 154              	.LVL12:
 155 0006 90B1     		cbz	r0, .L11
  51:main.c        ****         Led_1_Write(SW1_Read());
 156              		.loc 1 51 0
 157 0008 FFF7FEFF 		bl	SW1_Read
 158              	.LVL13:
 159 000c FFF7FEFF 		bl	Led_1_Write
 160              	.LVL14:
  52:main.c        ****         Led_2_Write(SW1_Read());
 161              		.loc 1 52 0
 162 0010 FFF7FEFF 		bl	SW1_Read
 163              	.LVL15:
 164 0014 FFF7FEFF 		bl	Led_2_Write
 165              	.LVL16:
  53:main.c        ****         Led_3_Write(SW1_Read());
 166              		.loc 1 53 0
 167 0018 FFF7FEFF 		bl	SW1_Read
 168              	.LVL17:
 169 001c FFF7FEFF 		bl	Led_3_Write
 170              	.LVL18:
  54:main.c        ****         Led_4_Write(SW1_Read());
 171              		.loc 1 54 0
 172 0020 FFF7FEFF 		bl	SW1_Read
 173              	.LVL19:
 174 0024 FFF7FEFF 		bl	Led_4_Write
ARM GAS  C:\Users\Piimps\AppData\Local\Temp\ccJcthr3.s 			page 5


 175              	.LVL20:
  55:main.c        ****         Timer_Start();   
 176              		.loc 1 55 0
 177 0028 FFF7FEFF 		bl	Timer_Start
 178              	.LVL21:
 179 002c 08BD     		pop	{r3, pc}
 180              	.L11:
  56:main.c        ****     } else { //  When the SW1 isn't press
  57:main.c        ****         Led_1_Write(SW1_Read());
 181              		.loc 1 57 0
 182 002e FFF7FEFF 		bl	SW1_Read
 183              	.LVL22:
 184 0032 FFF7FEFF 		bl	Led_1_Write
 185              	.LVL23:
  58:main.c        ****         Led_2_Write(SW1_Read());
 186              		.loc 1 58 0
 187 0036 FFF7FEFF 		bl	SW1_Read
 188              	.LVL24:
 189 003a FFF7FEFF 		bl	Led_2_Write
 190              	.LVL25:
  59:main.c        ****         Led_3_Write(SW1_Read());
 191              		.loc 1 59 0
 192 003e FFF7FEFF 		bl	SW1_Read
 193              	.LVL26:
 194 0042 FFF7FEFF 		bl	Led_3_Write
 195              	.LVL27:
  60:main.c        ****         Led_4_Write(SW1_Read());
 196              		.loc 1 60 0
 197 0046 FFF7FEFF 		bl	SW1_Read
 198              	.LVL28:
 199 004a FFF7FEFF 		bl	Led_4_Write
 200              	.LVL29:
  61:main.c        ****         Timer_Stop();
 201              		.loc 1 61 0
 202 004e FFF7FEFF 		bl	Timer_Stop
 203              	.LVL30:
 204 0052 08BD     		pop	{r3, pc}
 205              		.cfi_endproc
 206              	.LFE66:
 207              		.size	appuiSW1, .-appuiSW1
 208              		.section	.text.resetLed,"ax",%progbits
 209              		.align	2
 210              		.global	resetLed
 211              		.thumb
 212              		.thumb_func
 213              		.type	resetLed, %function
 214              	resetLed:
 215              	.LFB67:
  62:main.c        ****     }
  63:main.c        **** }
  64:main.c        ****     
  65:main.c        ****  void resetLed()
  66:main.c        **** {
 216              		.loc 1 66 0
 217              		.cfi_startproc
 218              		@ args = 0, pretend = 0, frame = 0
 219              		@ frame_needed = 0, uses_anonymous_args = 0
ARM GAS  C:\Users\Piimps\AppData\Local\Temp\ccJcthr3.s 			page 6


 220 0000 08B5     		push	{r3, lr}
 221              		.cfi_def_cfa_offset 8
 222              		.cfi_offset 3, -8
 223              		.cfi_offset 14, -4
  67:main.c        ****         Led_1_Write(0);
 224              		.loc 1 67 0
 225 0002 0020     		movs	r0, #0
 226 0004 FFF7FEFF 		bl	Led_1_Write
 227              	.LVL31:
  68:main.c        ****         Led_2_Write(0);
 228              		.loc 1 68 0
 229 0008 0020     		movs	r0, #0
 230 000a FFF7FEFF 		bl	Led_2_Write
 231              	.LVL32:
  69:main.c        ****         Led_3_Write(0);
 232              		.loc 1 69 0
 233 000e 0020     		movs	r0, #0
 234 0010 FFF7FEFF 		bl	Led_3_Write
 235              	.LVL33:
  70:main.c        ****         Led_4_Write(0);
 236              		.loc 1 70 0
 237 0014 0020     		movs	r0, #0
 238 0016 FFF7FEFF 		bl	Led_4_Write
 239              	.LVL34:
 240 001a 08BD     		pop	{r3, pc}
 241              		.cfi_endproc
 242              	.LFE67:
 243              		.size	resetLed, .-resetLed
 244              		.section	.text.pointAllume,"ax",%progbits
 245              		.align	2
 246              		.global	pointAllume
 247              		.thumb
 248              		.thumb_func
 249              		.type	pointAllume, %function
 250              	pointAllume:
 251              	.LFB68:
  71:main.c        **** }
  72:main.c        **** 
  73:main.c        **** void pointAllume(int length)
  74:main.c        **** {
 252              		.loc 1 74 0
 253              		.cfi_startproc
 254              		@ args = 0, pretend = 0, frame = 0
 255              		@ frame_needed = 0, uses_anonymous_args = 0
 256              	.LVL35:
 257 0000 38B5     		push	{r3, r4, r5, lr}
 258              		.cfi_def_cfa_offset 16
 259              		.cfi_offset 3, -16
 260              		.cfi_offset 4, -12
 261              		.cfi_offset 5, -8
 262              		.cfi_offset 14, -4
 263 0002 0546     		mov	r5, r0
  75:main.c        ****     int actualClock = clock;
 264              		.loc 1 75 0
 265 0004 124B     		ldr	r3, .L21
 266 0006 D3F89C41 		ldr	r4, [r3, #412]
 267              	.LVL36:
ARM GAS  C:\Users\Piimps\AppData\Local\Temp\ccJcthr3.s 			page 7


 268              	.L19:
  76:main.c        ****     do{
  77:main.c        ****         Timer_Start();
 269              		.loc 1 77 0
 270 000a FFF7FEFF 		bl	Timer_Start
 271              	.LVL37:
  78:main.c        ****         if(Timer_1_ReadStatusRegister() & Timer_1_STATUS_TC) clock++;
 272              		.loc 1 78 0
 273 000e FFF7FEFF 		bl	Timer_1_ReadStatusRegister
 274              	.LVL38:
 275 0012 10F0800F 		tst	r0, #128
 276 0016 05D0     		beq	.L17
 277              		.loc 1 78 0 is_stmt 0 discriminator 1
 278 0018 0D4A     		ldr	r2, .L21
 279 001a D2F89C31 		ldr	r3, [r2, #412]
 280 001e 0133     		adds	r3, r3, #1
 281 0020 C2F89C31 		str	r3, [r2, #412]
 282              	.L17:
  79:main.c        ****         if(lightOn == 1)
 283              		.loc 1 79 0 is_stmt 1
 284 0024 0B4B     		ldr	r3, .L21+4
 285 0026 1B78     		ldrb	r3, [r3]	@ zero_extendqisi2
 286 0028 5BB1     		cbz	r3, .L18
  80:main.c        ****         {
  81:main.c        ****         Led_1_Write(1);
 287              		.loc 1 81 0
 288 002a 0120     		movs	r0, #1
 289 002c FFF7FEFF 		bl	Led_1_Write
 290              	.LVL39:
  82:main.c        ****         Led_2_Write(1);
 291              		.loc 1 82 0
 292 0030 0120     		movs	r0, #1
 293 0032 FFF7FEFF 		bl	Led_2_Write
 294              	.LVL40:
  83:main.c        ****         Led_3_Write(1);
 295              		.loc 1 83 0
 296 0036 0120     		movs	r0, #1
 297 0038 FFF7FEFF 		bl	Led_3_Write
 298              	.LVL41:
  84:main.c        ****         Led_4_Write(1);   
 299              		.loc 1 84 0
 300 003c 0120     		movs	r0, #1
 301 003e FFF7FEFF 		bl	Led_4_Write
 302              	.LVL42:
 303              	.L18:
  85:main.c        ****         }
  86:main.c        ****     }while(clock - actualClock < length);
 304              		.loc 1 86 0
 305 0042 034B     		ldr	r3, .L21
 306 0044 D3F89C31 		ldr	r3, [r3, #412]
 307 0048 1B1B     		subs	r3, r3, r4
 308 004a AB42     		cmp	r3, r5
 309 004c DDDB     		blt	.L19
  87:main.c        **** }
 310              		.loc 1 87 0
 311 004e 38BD     		pop	{r3, r4, r5, pc}
 312              	.LVL43:
ARM GAS  C:\Users\Piimps\AppData\Local\Temp\ccJcthr3.s 			page 8


 313              	.L22:
 314              		.align	2
 315              	.L21:
 316 0050 00000000 		.word	.LANCHOR0
 317 0054 00000000 		.word	lightOn
 318              		.cfi_endproc
 319              	.LFE68:
 320              		.size	pointAllume, .-pointAllume
 321              		.section	.text.pointEteint,"ax",%progbits
 322              		.align	2
 323              		.global	pointEteint
 324              		.thumb
 325              		.thumb_func
 326              		.type	pointEteint, %function
 327              	pointEteint:
 328              	.LFB69:
  88:main.c        **** 
  89:main.c        **** 
  90:main.c        **** void pointEteint(int length)
  91:main.c        **** {
 329              		.loc 1 91 0
 330              		.cfi_startproc
 331              		@ args = 0, pretend = 0, frame = 0
 332              		@ frame_needed = 0, uses_anonymous_args = 0
 333              	.LVL44:
 334 0000 38B5     		push	{r3, r4, r5, lr}
 335              		.cfi_def_cfa_offset 16
 336              		.cfi_offset 3, -16
 337              		.cfi_offset 4, -12
 338              		.cfi_offset 5, -8
 339              		.cfi_offset 14, -4
 340 0002 0546     		mov	r5, r0
  92:main.c        ****     int actualClock = clock;
 341              		.loc 1 92 0
 342 0004 114B     		ldr	r3, .L27
 343 0006 D3F89C41 		ldr	r4, [r3, #412]
 344              	.LVL45:
 345              	.L25:
  93:main.c        ****     do{
  94:main.c        ****         if(Timer_1_ReadStatusRegister() & Timer_1_STATUS_TC) clock++;  
 346              		.loc 1 94 0
 347 000a FFF7FEFF 		bl	Timer_1_ReadStatusRegister
 348              	.LVL46:
 349 000e 10F0800F 		tst	r0, #128
 350 0012 05D0     		beq	.L24
 351              		.loc 1 94 0 is_stmt 0 discriminator 1
 352 0014 0D4A     		ldr	r2, .L27
 353 0016 D2F89C31 		ldr	r3, [r2, #412]
 354 001a 0133     		adds	r3, r3, #1
 355 001c C2F89C31 		str	r3, [r2, #412]
 356              	.L24:
  95:main.c        ****         Timer_Stop();
 357              		.loc 1 95 0 is_stmt 1
 358 0020 FFF7FEFF 		bl	Timer_Stop
 359              	.LVL47:
  96:main.c        ****         Led_1_Write(0);
 360              		.loc 1 96 0
ARM GAS  C:\Users\Piimps\AppData\Local\Temp\ccJcthr3.s 			page 9


 361 0024 0020     		movs	r0, #0
 362 0026 FFF7FEFF 		bl	Led_1_Write
 363              	.LVL48:
  97:main.c        ****         Led_2_Write(0);
 364              		.loc 1 97 0
 365 002a 0020     		movs	r0, #0
 366 002c FFF7FEFF 		bl	Led_2_Write
 367              	.LVL49:
  98:main.c        ****         Led_3_Write(0);
 368              		.loc 1 98 0
 369 0030 0020     		movs	r0, #0
 370 0032 FFF7FEFF 		bl	Led_3_Write
 371              	.LVL50:
  99:main.c        ****         Led_4_Write(0);   
 372              		.loc 1 99 0
 373 0036 0020     		movs	r0, #0
 374 0038 FFF7FEFF 		bl	Led_4_Write
 375              	.LVL51:
 100:main.c        ****     }while(clock - actualClock < length);
 376              		.loc 1 100 0
 377 003c 034B     		ldr	r3, .L27
 378 003e D3F89C31 		ldr	r3, [r3, #412]
 379 0042 1B1B     		subs	r3, r3, r4
 380 0044 AB42     		cmp	r3, r5
 381 0046 E0DB     		blt	.L25
 101:main.c        **** }
 382              		.loc 1 101 0
 383 0048 38BD     		pop	{r3, r4, r5, pc}
 384              	.LVL52:
 385              	.L28:
 386 004a 00BF     		.align	2
 387              	.L27:
 388 004c 00000000 		.word	.LANCHOR0
 389              		.cfi_endproc
 390              	.LFE69:
 391              		.size	pointEteint, .-pointEteint
 392              		.section	.text.barre,"ax",%progbits
 393              		.align	2
 394              		.global	barre
 395              		.thumb
 396              		.thumb_func
 397              		.type	barre, %function
 398              	barre:
 399              	.LFB70:
 102:main.c        **** void barre()
 103:main.c        **** {
 400              		.loc 1 103 0
 401              		.cfi_startproc
 402              		@ args = 0, pretend = 0, frame = 0
 403              		@ frame_needed = 0, uses_anonymous_args = 0
 404 0000 08B5     		push	{r3, lr}
 405              		.cfi_def_cfa_offset 8
 406              		.cfi_offset 3, -8
 407              		.cfi_offset 14, -4
 104:main.c        ****     pointAllume(750);
 408              		.loc 1 104 0
 409 0002 40F2EE20 		movw	r0, #750
ARM GAS  C:\Users\Piimps\AppData\Local\Temp\ccJcthr3.s 			page 10


 410 0006 FFF7FEFF 		bl	pointAllume
 411              	.LVL53:
 412 000a 08BD     		pop	{r3, pc}
 413              		.cfi_endproc
 414              	.LFE70:
 415              		.size	barre, .-barre
 416              		.section	.text.espacementLettre,"ax",%progbits
 417              		.align	2
 418              		.global	espacementLettre
 419              		.thumb
 420              		.thumb_func
 421              		.type	espacementLettre, %function
 422              	espacementLettre:
 423              	.LFB71:
 105:main.c        **** }
 106:main.c        **** 
 107:main.c        **** void espacementLettre()
 108:main.c        **** {
 424              		.loc 1 108 0
 425              		.cfi_startproc
 426              		@ args = 0, pretend = 0, frame = 0
 427              		@ frame_needed = 0, uses_anonymous_args = 0
 428 0000 08B5     		push	{r3, lr}
 429              		.cfi_def_cfa_offset 8
 430              		.cfi_offset 3, -8
 431              		.cfi_offset 14, -4
 109:main.c        ****    pointEteint(750); 
 432              		.loc 1 109 0
 433 0002 40F2EE20 		movw	r0, #750
 434 0006 FFF7FEFF 		bl	pointEteint
 435              	.LVL54:
 436 000a 08BD     		pop	{r3, pc}
 437              		.cfi_endproc
 438              	.LFE71:
 439              		.size	espacementLettre, .-espacementLettre
 440              		.section	.text.espacementElement,"ax",%progbits
 441              		.align	2
 442              		.global	espacementElement
 443              		.thumb
 444              		.thumb_func
 445              		.type	espacementElement, %function
 446              	espacementElement:
 447              	.LFB72:
 110:main.c        **** }
 111:main.c        **** 
 112:main.c        **** void espacementElement()
 113:main.c        **** {
 448              		.loc 1 113 0
 449              		.cfi_startproc
 450              		@ args = 0, pretend = 0, frame = 0
 451              		@ frame_needed = 0, uses_anonymous_args = 0
 452 0000 08B5     		push	{r3, lr}
 453              		.cfi_def_cfa_offset 8
 454              		.cfi_offset 3, -8
 455              		.cfi_offset 14, -4
 114:main.c        ****     pointEteint(250);   
 456              		.loc 1 114 0
ARM GAS  C:\Users\Piimps\AppData\Local\Temp\ccJcthr3.s 			page 11


 457 0002 FA20     		movs	r0, #250
 458 0004 FFF7FEFF 		bl	pointEteint
 459              	.LVL55:
 460 0008 08BD     		pop	{r3, pc}
 461              		.cfi_endproc
 462              	.LFE72:
 463              		.size	espacementElement, .-espacementElement
 464 000a 00BF     		.section	.text.selectSignal,"ax",%progbits
 465              		.align	2
 466              		.global	selectSignal
 467              		.thumb
 468              		.thumb_func
 469              		.type	selectSignal, %function
 470              	selectSignal:
 471              	.LFB73:
 115:main.c        **** }
 116:main.c        **** 
 117:main.c        **** void selectSignal(int value)
 118:main.c        **** {   
 472              		.loc 1 118 0
 473              		.cfi_startproc
 474              		@ args = 0, pretend = 0, frame = 0
 475              		@ frame_needed = 0, uses_anonymous_args = 0
 476              	.LVL56:
 477 0000 08B5     		push	{r3, lr}
 478              		.cfi_def_cfa_offset 8
 479              		.cfi_offset 3, -8
 480              		.cfi_offset 14, -4
 119:main.c        ****    if(value == 0){
 481              		.loc 1 119 0
 482 0002 18B9     		cbnz	r0, .L36
 120:main.c        ****         pointAllume(250);    
 483              		.loc 1 120 0
 484 0004 FA20     		movs	r0, #250
 485              	.LVL57:
 486 0006 FFF7FEFF 		bl	pointAllume
 487              	.LVL58:
 488 000a 08BD     		pop	{r3, pc}
 489              	.LVL59:
 490              	.L36:
 121:main.c        ****     }else if(value == 1){
 491              		.loc 1 121 0
 492 000c 0128     		cmp	r0, #1
 493 000e 02D1     		bne	.L38
 122:main.c        ****         barre();
 494              		.loc 1 122 0
 495 0010 FFF7FEFF 		bl	barre
 496              	.LVL60:
 497 0014 08BD     		pop	{r3, pc}
 498              	.LVL61:
 499              	.L38:
 123:main.c        ****     }else if(value == 2){
 500              		.loc 1 123 0
 501 0016 0228     		cmp	r0, #2
 502 0018 02D1     		bne	.L39
 124:main.c        ****         espacementElement();
 503              		.loc 1 124 0
ARM GAS  C:\Users\Piimps\AppData\Local\Temp\ccJcthr3.s 			page 12


 504 001a FFF7FEFF 		bl	espacementElement
 505              	.LVL62:
 506 001e 08BD     		pop	{r3, pc}
 507              	.LVL63:
 508              	.L39:
 125:main.c        ****     }else if(value == 3){
 509              		.loc 1 125 0
 510 0020 0328     		cmp	r0, #3
 511 0022 01D1     		bne	.L35
 126:main.c        ****         espacementLettre();
 512              		.loc 1 126 0
 513 0024 FFF7FEFF 		bl	espacementLettre
 514              	.LVL64:
 515              	.L35:
 516 0028 08BD     		pop	{r3, pc}
 517              		.cfi_endproc
 518              	.LFE73:
 519              		.size	selectSignal, .-selectSignal
 520 002a 00BF     		.section	.text.signalSOS,"ax",%progbits
 521              		.align	2
 522              		.global	signalSOS
 523              		.thumb
 524              		.thumb_func
 525              		.type	signalSOS, %function
 526              	signalSOS:
 527              	.LFB74:
 127:main.c        ****     }
 128:main.c        **** }
 129:main.c        ****  
 130:main.c        **** void signalSOS()
 131:main.c        **** {
 528              		.loc 1 131 0
 529              		.cfi_startproc
 530              		@ args = 0, pretend = 0, frame = 72
 531              		@ frame_needed = 0, uses_anonymous_args = 0
 532 0000 10B5     		push	{r4, lr}
 533              		.cfi_def_cfa_offset 8
 534              		.cfi_offset 4, -8
 535              		.cfi_offset 14, -4
 536 0002 92B0     		sub	sp, sp, #72
 537              		.cfi_def_cfa_offset 80
 132:main.c        ****         // ... --- ...
 133:main.c        ****         // 0 = point
 134:main.c        ****         // 1 = barre
 135:main.c        ****         // 2 = espace entre deux éléments d'une même lettre (1 point)
 136:main.c        ****         // 3 = espace entre deux lettres (3 points)  
 137:main.c        ****     int arr[17] = {0,2,0,2,0,3,1,2,1,2,1,3,0,2,0,2,0};
 538              		.loc 1 137 0
 539 0004 4422     		movs	r2, #68
 540 0006 1249     		ldr	r1, .L46
 541 0008 01A8     		add	r0, sp, #4
 542 000a FFF7FEFF 		bl	memcpy
 543              	.LVL65:
 138:main.c        ****     int f;
 139:main.c        ****     Timer_1_Start();
 544              		.loc 1 139 0
 545 000e FFF7FEFF 		bl	Timer_1_Start
ARM GAS  C:\Users\Piimps\AppData\Local\Temp\ccJcthr3.s 			page 13


 546              	.LVL66:
 140:main.c        ****    
 141:main.c        ****     if(Timer_1_ReadStatusRegister() & Timer_1_STATUS_TC) clock++;
 547              		.loc 1 141 0
 548 0012 FFF7FEFF 		bl	Timer_1_ReadStatusRegister
 549              	.LVL67:
 550 0016 10F0800F 		tst	r0, #128
 551 001a 05D0     		beq	.L42
 552              		.loc 1 141 0 is_stmt 0 discriminator 1
 553 001c 0D4A     		ldr	r2, .L46+4
 554 001e D2F89C31 		ldr	r3, [r2, #412]
 555 0022 0133     		adds	r3, r3, #1
 556 0024 C2F89C31 		str	r3, [r2, #412]
 557              	.L42:
 131:main.c        ****         // ... --- ...
 558              		.loc 1 131 0 is_stmt 1 discriminator 1
 559 0028 0024     		movs	r4, #0
 560 002a 07E0     		b	.L43
 561              	.LVL68:
 562              	.L44:
 142:main.c        ****     
 143:main.c        ****     for(f = 0; f < 17; f ++)
 144:main.c        ****     {
 145:main.c        ****         selectSignal(arr[f]);
 563              		.loc 1 145 0 discriminator 3
 564 002c 12AB     		add	r3, sp, #72
 565 002e 03EB8403 		add	r3, r3, r4, lsl #2
 566 0032 53F8440C 		ldr	r0, [r3, #-68]
 567 0036 FFF7FEFF 		bl	selectSignal
 568              	.LVL69:
 143:main.c        ****     {
 569              		.loc 1 143 0 discriminator 3
 570 003a 0134     		adds	r4, r4, #1
 571              	.LVL70:
 572              	.L43:
 143:main.c        ****     {
 573              		.loc 1 143 0 is_stmt 0 discriminator 1
 574 003c 102C     		cmp	r4, #16
 575 003e F5DD     		ble	.L44
 146:main.c        ****     }
 147:main.c        ****     resetLed();
 576              		.loc 1 147 0 is_stmt 1
 577 0040 FFF7FEFF 		bl	resetLed
 578              	.LVL71:
 148:main.c        ****     clock = 0;
 579              		.loc 1 148 0
 580 0044 0022     		movs	r2, #0
 581 0046 034B     		ldr	r3, .L46+4
 582 0048 C3F89C21 		str	r2, [r3, #412]
 149:main.c        **** }
 583              		.loc 1 149 0
 584 004c 12B0     		add	sp, sp, #72
 585              		.cfi_def_cfa_offset 8
 586              		@ sp needed
 587 004e 10BD     		pop	{r4, pc}
 588              	.LVL72:
 589              	.L47:
ARM GAS  C:\Users\Piimps\AppData\Local\Temp\ccJcthr3.s 			page 14


 590              		.align	2
 591              	.L46:
 592 0050 00000000 		.word	.LANCHOR1
 593 0054 00000000 		.word	.LANCHOR0
 594              		.cfi_endproc
 595              	.LFE74:
 596              		.size	signalSOS, .-signalSOS
 597              		.section	.text.signalBEAMS,"ax",%progbits
 598              		.align	2
 599              		.global	signalBEAMS
 600              		.thumb
 601              		.thumb_func
 602              		.type	signalBEAMS, %function
 603              	signalBEAMS:
 604              	.LFB75:
 150:main.c        **** 
 151:main.c        **** void signalBEAMS()
 152:main.c        **** {
 605              		.loc 1 152 0
 606              		.cfi_startproc
 607              		@ args = 0, pretend = 0, frame = 96
 608              		@ frame_needed = 0, uses_anonymous_args = 0
 609 0000 10B5     		push	{r4, lr}
 610              		.cfi_def_cfa_offset 8
 611              		.cfi_offset 4, -8
 612              		.cfi_offset 14, -4
 613 0002 98B0     		sub	sp, sp, #96
 614              		.cfi_def_cfa_offset 104
 153:main.c        ****     //-... . .- -- ... 
 154:main.c        ****     int arr[23] = {1,2,0,2,0,2,0,3,0,3,0,2,1,3,1,2,1,3,0,2,0,2,0};
 615              		.loc 1 154 0
 616 0004 5C22     		movs	r2, #92
 617 0006 1249     		ldr	r1, .L53
 618 0008 01A8     		add	r0, sp, #4
 619 000a FFF7FEFF 		bl	memcpy
 620              	.LVL73:
 155:main.c        ****     int f;
 156:main.c        ****     Timer_1_Start();
 621              		.loc 1 156 0
 622 000e FFF7FEFF 		bl	Timer_1_Start
 623              	.LVL74:
 157:main.c        ****    
 158:main.c        ****     if(Timer_1_ReadStatusRegister() & Timer_1_STATUS_TC) clock++;
 624              		.loc 1 158 0
 625 0012 FFF7FEFF 		bl	Timer_1_ReadStatusRegister
 626              	.LVL75:
 627 0016 10F0800F 		tst	r0, #128
 628 001a 05D0     		beq	.L49
 629              		.loc 1 158 0 is_stmt 0 discriminator 1
 630 001c 0D4A     		ldr	r2, .L53+4
 631 001e D2F89C31 		ldr	r3, [r2, #412]
 632 0022 0133     		adds	r3, r3, #1
 633 0024 C2F89C31 		str	r3, [r2, #412]
 634              	.L49:
 152:main.c        ****     //-... . .- -- ... 
 635              		.loc 1 152 0 is_stmt 1 discriminator 1
 636 0028 0024     		movs	r4, #0
ARM GAS  C:\Users\Piimps\AppData\Local\Temp\ccJcthr3.s 			page 15


 637 002a 07E0     		b	.L50
 638              	.LVL76:
 639              	.L51:
 159:main.c        ****     
 160:main.c        ****     for(f = 0; f < 23; f ++)
 161:main.c        ****     {
 162:main.c        ****         selectSignal(arr[f]);
 640              		.loc 1 162 0 discriminator 3
 641 002c 18AB     		add	r3, sp, #96
 642 002e 03EB8403 		add	r3, r3, r4, lsl #2
 643 0032 53F85C0C 		ldr	r0, [r3, #-92]
 644 0036 FFF7FEFF 		bl	selectSignal
 645              	.LVL77:
 160:main.c        ****     {
 646              		.loc 1 160 0 discriminator 3
 647 003a 0134     		adds	r4, r4, #1
 648              	.LVL78:
 649              	.L50:
 160:main.c        ****     {
 650              		.loc 1 160 0 is_stmt 0 discriminator 1
 651 003c 162C     		cmp	r4, #22
 652 003e F5DD     		ble	.L51
 163:main.c        ****     }
 164:main.c        ****     resetLed();
 653              		.loc 1 164 0 is_stmt 1
 654 0040 FFF7FEFF 		bl	resetLed
 655              	.LVL79:
 165:main.c        ****     clock = 0;
 656              		.loc 1 165 0
 657 0044 0022     		movs	r2, #0
 658 0046 034B     		ldr	r3, .L53+4
 659 0048 C3F89C21 		str	r2, [r3, #412]
 166:main.c        ****     
 167:main.c        **** }
 660              		.loc 1 167 0
 661 004c 18B0     		add	sp, sp, #96
 662              		.cfi_def_cfa_offset 8
 663              		@ sp needed
 664 004e 10BD     		pop	{r4, pc}
 665              	.LVL80:
 666              	.L54:
 667              		.align	2
 668              	.L53:
 669 0050 44000000 		.word	.LANCHOR1+68
 670 0054 00000000 		.word	.LANCHOR0
 671              		.cfi_endproc
 672              	.LFE75:
 673              		.size	signalBEAMS, .-signalBEAMS
 674              		.section	.text.appuiSW2,"ax",%progbits
 675              		.align	2
 676              		.global	appuiSW2
 677              		.thumb
 678              		.thumb_func
 679              		.type	appuiSW2, %function
 680              	appuiSW2:
 681              	.LFB76:
 168:main.c        ****      // Function to turn on all LEDs when you press on SW2
ARM GAS  C:\Users\Piimps\AppData\Local\Temp\ccJcthr3.s 			page 16


 169:main.c        ****   void appuiSW2()
 170:main.c        ****     {
 682              		.loc 1 170 0
 683              		.cfi_startproc
 684              		@ args = 0, pretend = 0, frame = 0
 685              		@ frame_needed = 0, uses_anonymous_args = 0
 686 0000 08B5     		push	{r3, lr}
 687              		.cfi_def_cfa_offset 8
 688              		.cfi_offset 3, -8
 689              		.cfi_offset 14, -4
 171:main.c        ****        if( SW2_Read() != 0)
 690              		.loc 1 171 0
 691 0002 FFF7FEFF 		bl	SW2_Read
 692              	.LVL81:
 693 0006 A8B1     		cbz	r0, .L55
 172:main.c        ****         {
 173:main.c        ****             Timer_1_Start();
 694              		.loc 1 173 0
 695 0008 FFF7FEFF 		bl	Timer_1_Start
 696              	.LVL82:
 174:main.c        ****            
 175:main.c        ****             if(Timer_1_ReadStatusRegister() & Timer_1_STATUS_TC) clock++;
 697              		.loc 1 175 0
 698 000c FFF7FEFF 		bl	Timer_1_ReadStatusRegister
 699              	.LVL83:
 700 0010 10F0800F 		tst	r0, #128
 701 0014 05D0     		beq	.L57
 702              		.loc 1 175 0 is_stmt 0 discriminator 1
 703 0016 084A     		ldr	r2, .L59
 704 0018 D2F89C31 		ldr	r3, [r2, #412]
 705 001c 0133     		adds	r3, r3, #1
 706 001e C2F89C31 		str	r3, [r2, #412]
 707              	.L57:
 176:main.c        ****             
 177:main.c        ****             pointAllume(250);
 708              		.loc 1 177 0 is_stmt 1
 709 0022 FA20     		movs	r0, #250
 710 0024 FFF7FEFF 		bl	pointAllume
 711              	.LVL84:
 178:main.c        ****             resetLed();
 712              		.loc 1 178 0
 713 0028 FFF7FEFF 		bl	resetLed
 714              	.LVL85:
 179:main.c        ****             clock = 0;
 715              		.loc 1 179 0
 716 002c 0022     		movs	r2, #0
 717 002e 024B     		ldr	r3, .L59
 718 0030 C3F89C21 		str	r2, [r3, #412]
 719              	.L55:
 720 0034 08BD     		pop	{r3, pc}
 721              	.L60:
 722 0036 00BF     		.align	2
 723              	.L59:
 724 0038 00000000 		.word	.LANCHOR0
 725              		.cfi_endproc
 726              	.LFE76:
 727              		.size	appuiSW2, .-appuiSW2
ARM GAS  C:\Users\Piimps\AppData\Local\Temp\ccJcthr3.s 			page 17


 728              		.section	.text.appuiSW3,"ax",%progbits
 729              		.align	2
 730              		.global	appuiSW3
 731              		.thumb
 732              		.thumb_func
 733              		.type	appuiSW3, %function
 734              	appuiSW3:
 735              	.LFB77:
 180:main.c        ****         }
 181:main.c        ****     }
 182:main.c        ****     
 183:main.c        ****  void appuiSW3() /// When you press on SW3
 184:main.c        ****     {
 736              		.loc 1 184 0
 737              		.cfi_startproc
 738              		@ args = 0, pretend = 0, frame = 0
 739              		@ frame_needed = 0, uses_anonymous_args = 0
 740 0000 08B5     		push	{r3, lr}
 741              		.cfi_def_cfa_offset 8
 742              		.cfi_offset 3, -8
 743              		.cfi_offset 14, -4
 185:main.c        ****        if( SW3_Read() != 0)
 744              		.loc 1 185 0
 745 0002 FFF7FEFF 		bl	SW3_Read
 746              	.LVL86:
 747 0006 B0B1     		cbz	r0, .L61
 186:main.c        ****         {
 187:main.c        ****             Timer_1_Start();
 748              		.loc 1 187 0
 749 0008 FFF7FEFF 		bl	Timer_1_Start
 750              	.LVL87:
 188:main.c        ****            
 189:main.c        ****             if(Timer_1_ReadStatusRegister() & Timer_1_STATUS_TC) clock++;
 751              		.loc 1 189 0
 752 000c FFF7FEFF 		bl	Timer_1_ReadStatusRegister
 753              	.LVL88:
 754 0010 10F0800F 		tst	r0, #128
 755 0014 05D0     		beq	.L63
 756              		.loc 1 189 0 is_stmt 0 discriminator 1
 757 0016 084A     		ldr	r2, .L65
 758 0018 D2F89C31 		ldr	r3, [r2, #412]
 759 001c 0133     		adds	r3, r3, #1
 760 001e C2F89C31 		str	r3, [r2, #412]
 761              	.L63:
 190:main.c        ****             
 191:main.c        ****             pointAllume(750);
 762              		.loc 1 191 0 is_stmt 1
 763 0022 40F2EE20 		movw	r0, #750
 764 0026 FFF7FEFF 		bl	pointAllume
 765              	.LVL89:
 192:main.c        ****             resetLed();
 766              		.loc 1 192 0
 767 002a FFF7FEFF 		bl	resetLed
 768              	.LVL90:
 193:main.c        ****             clock = 0;
 769              		.loc 1 193 0
 770 002e 0022     		movs	r2, #0
ARM GAS  C:\Users\Piimps\AppData\Local\Temp\ccJcthr3.s 			page 18


 771 0030 014B     		ldr	r3, .L65
 772 0032 C3F89C21 		str	r2, [r3, #412]
 773              	.L61:
 774 0036 08BD     		pop	{r3, pc}
 775              	.L66:
 776              		.align	2
 777              	.L65:
 778 0038 00000000 		.word	.LANCHOR0
 779              		.cfi_endproc
 780              	.LFE77:
 781              		.size	appuiSW3, .-appuiSW3
 782              		.section	.text.displayMessage,"ax",%progbits
 783              		.align	2
 784              		.global	displayMessage
 785              		.thumb
 786              		.thumb_func
 787              		.type	displayMessage, %function
 788              	displayMessage:
 789              	.LFB78:
 194:main.c        ****         }
 195:main.c        ****     }
 196:main.c        ****     
 197:main.c        ****  void displayMessage(char** message)
 198:main.c        **** {
 790              		.loc 1 198 0
 791              		.cfi_startproc
 792              		@ args = 0, pretend = 0, frame = 0
 793              		@ frame_needed = 0, uses_anonymous_args = 0
 794              	.LVL91:
 795 0000 10B5     		push	{r4, lr}
 796              		.cfi_def_cfa_offset 8
 797              		.cfi_offset 4, -8
 798              		.cfi_offset 14, -4
 799 0002 0446     		mov	r4, r0
 199:main.c        ****     LCD_Position(0,0);
 800              		.loc 1 199 0
 801 0004 0021     		movs	r1, #0
 802 0006 0846     		mov	r0, r1
 803              	.LVL92:
 804 0008 FFF7FEFF 		bl	LCD_Position
 805              	.LVL93:
 200:main.c        ****     LCD_PrintString(*message);
 806              		.loc 1 200 0
 807 000c 2068     		ldr	r0, [r4]
 808 000e FFF7FEFF 		bl	LCD_PrintString
 809              	.LVL94:
 810 0012 10BD     		pop	{r4, pc}
 811              		.cfi_endproc
 812              	.LFE78:
 813              		.size	displayMessage, .-displayMessage
 814              		.section	.text.photoresistor,"ax",%progbits
 815              		.align	2
 816              		.global	photoresistor
 817              		.thumb
 818              		.thumb_func
 819              		.type	photoresistor, %function
 820              	photoresistor:
ARM GAS  C:\Users\Piimps\AppData\Local\Temp\ccJcthr3.s 			page 19


 821              	.LFB79:
 201:main.c        **** }
 202:main.c        **** 
 203:main.c        **** void photoresistor()
 204:main.c        **** {
 822              		.loc 1 204 0
 823              		.cfi_startproc
 824              		@ args = 0, pretend = 0, frame = 0
 825              		@ frame_needed = 0, uses_anonymous_args = 0
 826 0000 08B5     		push	{r3, lr}
 827              		.cfi_def_cfa_offset 8
 828              		.cfi_offset 3, -8
 829              		.cfi_offset 14, -4
 205:main.c        ****     if (ADC_IsEndConversion(ADC_RETURN_STATUS) != 0) {
 830              		.loc 1 205 0
 831 0002 0120     		movs	r0, #1
 832 0004 FFF7FEFF 		bl	ADC_IsEndConversion
 833              	.LVL95:
 834 0008 90B1     		cbz	r0, .L69
 835              	.LBB2:
 206:main.c        ****             int32 value = ADC_GetResult32();
 836              		.loc 1 206 0
 837 000a FFF7FEFF 		bl	ADC_GetResult32
 838              	.LVL96:
 207:main.c        ****             if(value < 8000) // pas de lumière 
 839              		.loc 1 207 0
 840 000e B0F5FA5F 		cmp	r0, #8000
 841 0012 05DA     		bge	.L71
 208:main.c        ****             {
 209:main.c        ****                PWM_Stop();
 842              		.loc 1 209 0
 843 0014 FFF7FEFF 		bl	PWM_Stop
 844              	.LVL97:
 210:main.c        ****                lightOn = 1;
 845              		.loc 1 210 0
 846 0018 0122     		movs	r2, #1
 847 001a 064B     		ldr	r3, .L73
 848 001c 1A70     		strb	r2, [r3]
 849 001e 08BD     		pop	{r3, pc}
 850              	.LVL98:
 851              	.L71:
 211:main.c        ****             }else if(value > 8000) // de la lumière
 852              		.loc 1 211 0
 853 0020 B0F5FA5F 		cmp	r0, #8000
 854 0024 04DD     		ble	.L69
 212:main.c        ****             {
 213:main.c        ****                lightOn = 0;
 855              		.loc 1 213 0
 856 0026 0022     		movs	r2, #0
 857 0028 024B     		ldr	r3, .L73
 858 002a 1A70     		strb	r2, [r3]
 214:main.c        ****                PWM_Start(); 
 859              		.loc 1 214 0
 860 002c FFF7FEFF 		bl	PWM_Start
 861              	.LVL99:
 862              	.L69:
 863 0030 08BD     		pop	{r3, pc}
ARM GAS  C:\Users\Piimps\AppData\Local\Temp\ccJcthr3.s 			page 20


 864              	.L74:
 865 0032 00BF     		.align	2
 866              	.L73:
 867 0034 00000000 		.word	lightOn
 868              	.LBE2:
 869              		.cfi_endproc
 870              	.LFE79:
 871              		.size	photoresistor, .-photoresistor
 872              		.section	.text.keyboard,"ax",%progbits
 873              		.align	2
 874              		.global	keyboard
 875              		.thumb
 876              		.thumb_func
 877              		.type	keyboard, %function
 878              	keyboard:
 879              	.LFB80:
 215:main.c        ****             }  
 216:main.c        ****         }
 217:main.c        **** }
 218:main.c        ****   
 219:main.c        ****   void keyboard() // Keyboard function used to read 1,2 or *
 220:main.c        **** {
 880              		.loc 1 220 0
 881              		.cfi_startproc
 882              		@ args = 0, pretend = 0, frame = 8
 883              		@ frame_needed = 0, uses_anonymous_args = 0
 884 0000 30B5     		push	{r4, r5, lr}
 885              		.cfi_def_cfa_offset 12
 886              		.cfi_offset 4, -12
 887              		.cfi_offset 5, -8
 888              		.cfi_offset 14, -4
 889 0002 83B0     		sub	sp, sp, #12
 890              		.cfi_def_cfa_offset 24
 221:main.c        ****     uint8_t  value = keypadScan();
 891              		.loc 1 221 0
 892 0004 FFF7FEFF 		bl	keypadScan
 893              	.LVL100:
 894 0008 0446     		mov	r4, r0
 895              	.LVL101:
 222:main.c        ****     char* message;
 223:main.c        ****     
 224:main.c        ****     
 225:main.c        ****     while (value == '1' || value == '*' || value == '2') 
 896              		.loc 1 225 0
 897 000a 45E0     		b	.L76
 898              	.L83:
 899              	.LBB3:
 226:main.c        ****     {
 227:main.c        ****         uint8_t value2 = keypadScan();
 900              		.loc 1 227 0
 901 000c FFF7FEFF 		bl	keypadScan
 902              	.LVL102:
 903 0010 0546     		mov	r5, r0
 904              	.LVL103:
 228:main.c        ****         AMux_FastSelect(0);
 905              		.loc 1 228 0
 906 0012 0020     		movs	r0, #0
ARM GAS  C:\Users\Piimps\AppData\Local\Temp\ccJcthr3.s 			page 21


 907 0014 FFF7FEFF 		bl	AMux_FastSelect
 908              	.LVL104:
 229:main.c        ****         photoresistor();
 909              		.loc 1 229 0
 910 0018 FFF7FEFF 		bl	photoresistor
 911              	.LVL105:
 230:main.c        **** 
 231:main.c        ****         if ((value == '1' && value2 == '*') || (value == '*' && value2 == '1')) {
 912              		.loc 1 231 0
 913 001c 312C     		cmp	r4, #49
 914 001e 01D1     		bne	.L77
 915              		.loc 1 231 0 is_stmt 0 discriminator 1
 916 0020 2A2D     		cmp	r5, #42
 917 0022 03D0     		beq	.L78
 918              	.L77:
 919              		.loc 1 231 0 discriminator 3
 920 0024 2A2C     		cmp	r4, #42
 921 0026 17D1     		bne	.L79
 922              		.loc 1 231 0 discriminator 4
 923 0028 312D     		cmp	r5, #49
 924 002a 15D1     		bne	.L79
 925              	.L78:
 232:main.c        ****             message = (char*) malloc(strlen("SOS"));
 926              		.loc 1 232 0 is_stmt 1
 927 002c 0320     		movs	r0, #3
 928 002e FFF7FEFF 		bl	malloc
 929              	.LVL106:
 930 0032 0246     		mov	r2, r0
 931 0034 02AB     		add	r3, sp, #8
 932 0036 43F8040D 		str	r0, [r3, #-4]!
 233:main.c        ****             sprintf(message,"SOS");
 933              		.loc 1 233 0
 934 003a 1B49     		ldr	r1, .L85
 935 003c 0868     		ldr	r0, [r1]	@ unaligned
 936 003e 1060     		str	r0, [r2]	@ unaligned
 234:main.c        ****             displayMessage(&message);
 937              		.loc 1 234 0
 938 0040 1846     		mov	r0, r3
 939 0042 FFF7FEFF 		bl	displayMessage
 940              	.LVL107:
 235:main.c        ****             signalSOS();
 941              		.loc 1 235 0
 942 0046 FFF7FEFF 		bl	signalSOS
 943              	.LVL108:
 236:main.c        ****             LCD_ClearDisplay();
 944              		.loc 1 236 0
 945 004a 0120     		movs	r0, #1
 946 004c FFF7FEFF 		bl	LCD_WriteControl
 947              	.LVL109:
 237:main.c        ****             AMux_FastSelect(1);
 948              		.loc 1 237 0
 949 0050 0120     		movs	r0, #1
 950 0052 FFF7FEFF 		bl	AMux_FastSelect
 951              	.LVL110:
 238:main.c        ****             break;
 952              		.loc 1 238 0
 953 0056 25E0     		b	.L75
ARM GAS  C:\Users\Piimps\AppData\Local\Temp\ccJcthr3.s 			page 22


 954              	.L79:
 239:main.c        ****         }
 240:main.c        ****          if ((value == '2' && value2 == '*') || (value == '*' && value2 == '2')) {
 955              		.loc 1 240 0
 956 0058 322C     		cmp	r4, #50
 957 005a 01D1     		bne	.L81
 958              		.loc 1 240 0 is_stmt 0 discriminator 1
 959 005c 2A2D     		cmp	r5, #42
 960 005e 03D0     		beq	.L82
 961              	.L81:
 962              		.loc 1 240 0 discriminator 3
 963 0060 2A2C     		cmp	r4, #42
 964 0062 19D1     		bne	.L76
 965              		.loc 1 240 0 discriminator 4
 966 0064 322D     		cmp	r5, #50
 967 0066 17D1     		bne	.L76
 968              	.L82:
 241:main.c        ****             message = (char*) malloc(strlen("BEAMS"));
 969              		.loc 1 241 0 is_stmt 1
 970 0068 0520     		movs	r0, #5
 971 006a FFF7FEFF 		bl	malloc
 972              	.LVL111:
 973 006e 0246     		mov	r2, r0
 974 0070 02AB     		add	r3, sp, #8
 975 0072 43F8040D 		str	r0, [r3, #-4]!
 242:main.c        ****             sprintf(message,"BEAMS");
 976              		.loc 1 242 0
 977 0076 0D49     		ldr	r1, .L85+4
 978 0078 0868     		ldr	r0, [r1]	@ unaligned
 979 007a 1060     		str	r0, [r2]	@ unaligned
 980 007c 8988     		ldrh	r1, [r1, #4]	@ unaligned
 981 007e 9180     		strh	r1, [r2, #4]	@ unaligned
 243:main.c        ****             displayMessage(&message);
 982              		.loc 1 243 0
 983 0080 1846     		mov	r0, r3
 984 0082 FFF7FEFF 		bl	displayMessage
 985              	.LVL112:
 244:main.c        ****             signalBEAMS();
 986              		.loc 1 244 0
 987 0086 FFF7FEFF 		bl	signalBEAMS
 988              	.LVL113:
 245:main.c        ****             LCD_ClearDisplay();
 989              		.loc 1 245 0
 990 008a 0120     		movs	r0, #1
 991 008c FFF7FEFF 		bl	LCD_WriteControl
 992              	.LVL114:
 246:main.c        ****             AMux_FastSelect(1);
 993              		.loc 1 246 0
 994 0090 0120     		movs	r0, #1
 995 0092 FFF7FEFF 		bl	AMux_FastSelect
 996              	.LVL115:
 247:main.c        ****             break;
 997              		.loc 1 247 0
 998 0096 05E0     		b	.L75
 999              	.LVL116:
 1000              	.L76:
 1001              	.LBE3:
ARM GAS  C:\Users\Piimps\AppData\Local\Temp\ccJcthr3.s 			page 23


 225:main.c        ****     {
 1002              		.loc 1 225 0
 1003 0098 312C     		cmp	r4, #49
 1004 009a B7D0     		beq	.L83
 225:main.c        ****     {
 1005              		.loc 1 225 0 is_stmt 0 discriminator 1
 1006 009c 2A2C     		cmp	r4, #42
 1007 009e B5D0     		beq	.L83
 225:main.c        ****     {
 1008              		.loc 1 225 0 discriminator 2
 1009 00a0 322C     		cmp	r4, #50
 1010 00a2 B3D0     		beq	.L83
 1011              	.L75:
 248:main.c        ****         }
 249:main.c        ****     }
 250:main.c        **** }
 1012              		.loc 1 250 0 is_stmt 1
 1013 00a4 03B0     		add	sp, sp, #12
 1014              		.cfi_def_cfa_offset 12
 1015              		@ sp needed
 1016 00a6 30BD     		pop	{r4, r5, pc}
 1017              	.LVL117:
 1018              	.L86:
 1019              		.align	2
 1020              	.L85:
 1021 00a8 00000000 		.word	.LC2
 1022 00ac 04000000 		.word	.LC3
 1023              		.cfi_endproc
 1024              	.LFE80:
 1025              		.size	keyboard, .-keyboard
 1026              		.global	__aeabi_i2d
 1027              		.global	__aeabi_ddiv
 1028              		.global	__aeabi_d2f
 1029              		.section	.text.potentiometer,"ax",%progbits
 1030              		.align	2
 1031              		.global	potentiometer
 1032              		.thumb
 1033              		.thumb_func
 1034              		.type	potentiometer, %function
 1035              	potentiometer:
 1036              	.LFB81:
 251:main.c        **** 
 252:main.c        **** void potentiometer()
 253:main.c        **** {
 1037              		.loc 1 253 0
 1038              		.cfi_startproc
 1039              		@ args = 0, pretend = 0, frame = 0
 1040              		@ frame_needed = 0, uses_anonymous_args = 0
 1041 0000 08B5     		push	{r3, lr}
 1042              		.cfi_def_cfa_offset 8
 1043              		.cfi_offset 3, -8
 1044              		.cfi_offset 14, -4
 254:main.c        ****     if (ADC_IsEndConversion(ADC_RETURN_STATUS) > 0) {
 1045              		.loc 1 254 0
 1046 0002 0120     		movs	r0, #1
 1047 0004 FFF7FEFF 		bl	ADC_IsEndConversion
 1048              	.LVL118:
ARM GAS  C:\Users\Piimps\AppData\Local\Temp\ccJcthr3.s 			page 24


 1049 0008 C8B1     		cbz	r0, .L87
 1050              	.LBB4:
 255:main.c        ****             int32 value = ADC_GetResult32();
 1051              		.loc 1 255 0
 1052 000a FFF7FEFF 		bl	ADC_GetResult32
 1053              	.LVL119:
 256:main.c        ****             float value_float = value/7.9;
 1054              		.loc 1 256 0
 1055 000e FFF7FEFF 		bl	__aeabi_i2d
 1056              	.LVL120:
 1057 0012 0BA3     		adr	r3, .L91
 1058 0014 D3E90023 		ldrd	r2, [r3]
 1059 0018 FFF7FEFF 		bl	__aeabi_ddiv
 1060              	.LVL121:
 1061 001c FFF7FEFF 		bl	__aeabi_d2f
 1062              	.LVL122:
 257:main.c        ****             if(flag == 0){
 1063              		.loc 1 257 0
 1064 0020 094B     		ldr	r3, .L91+8
 1065 0022 93F89831 		ldrb	r3, [r3, #408]	@ zero_extendqisi2
 1066 0026 2BB9     		cbnz	r3, .L89
 258:main.c        ****             PWM_WriteCompare1(value_float);
 1067              		.loc 1 258 0
 1068 0028 FFF7FEFF 		bl	__aeabi_f2uiz
 1069              	.LVL123:
 1070 002c 80B2     		uxth	r0, r0
 1071 002e FFF7FEFF 		bl	PWM_WriteCompare1
 1072              	.LVL124:
 1073 0032 08BD     		pop	{r3, pc}
 1074              	.LVL125:
 1075              	.L89:
 259:main.c        ****             }else{
 260:main.c        ****             PWM_WriteCompare2(value_float);
 1076              		.loc 1 260 0
 1077 0034 FFF7FEFF 		bl	__aeabi_f2uiz
 1078              	.LVL126:
 1079 0038 80B2     		uxth	r0, r0
 1080 003a FFF7FEFF 		bl	PWM_WriteCompare2
 1081              	.LVL127:
 1082              	.L87:
 1083 003e 08BD     		pop	{r3, pc}
 1084              	.L92:
 1085              		.align	3
 1086              	.L91:
 1087 0040 9A999999 		.word	-1717986918
 1088 0044 99991F40 		.word	1075812761
 1089 0048 00000000 		.word	.LANCHOR0
 1090              	.LBE4:
 1091              		.cfi_endproc
 1092              	.LFE81:
 1093              		.size	potentiometer, .-potentiometer
 1094              		.global	__aeabi_dmul
 1095              		.section	.text.main,"ax",%progbits
 1096              		.align	2
 1097              		.global	main
 1098              		.thumb
 1099              		.thumb_func
ARM GAS  C:\Users\Piimps\AppData\Local\Temp\ccJcthr3.s 			page 25


 1100              		.type	main, %function
 1101              	main:
 1102              	.LFB82:
 261:main.c        ****             }
 262:main.c        ****         }
 263:main.c        **** }
 264:main.c        **** 
 265:main.c        **** 
 266:main.c        **** 
 267:main.c        **** int main(void)
 268:main.c        **** {
 1103              		.loc 1 268 0
 1104              		.cfi_startproc
 1105              		@ Volatile: function does not return.
 1106              		@ args = 0, pretend = 0, frame = 0
 1107              		@ frame_needed = 0, uses_anonymous_args = 0
 1108 0000 08B5     		push	{r3, lr}
 1109              		.cfi_def_cfa_offset 8
 1110              		.cfi_offset 3, -8
 1111              		.cfi_offset 14, -4
 269:main.c        ****     CyGlobalIntEnable; /* Enable global interrupts. */
 1112              		.loc 1 269 0
 1113              		.syntax unified
 1114              	@ 269 "main.c" 1
 1115 0002 62B6     		CPSIE   i
 1116              	@ 0 "" 2
 270:main.c        ****     for (i = 0; i < 100; i++) {
 1117              		.loc 1 270 0
 1118              		.thumb
 1119              		.syntax unified
 1120 0004 0022     		movs	r2, #0
 1121 0006 2C4B     		ldr	r3, .L98+8
 1122 0008 C3F89021 		str	r2, [r3, #400]
 1123 000c 15E0     		b	.L94
 1124              	.L95:
 271:main.c        ****         signal[i] = sin((i * 2 * M_PI) / 100);
 1125              		.loc 1 271 0 discriminator 3
 1126 000e 6000     		lsls	r0, r4, #1
 1127 0010 FFF7FEFF 		bl	__aeabi_i2d
 1128              	.LVL128:
 1129 0014 26A3     		adr	r3, .L98
 1130 0016 D3E90023 		ldrd	r2, [r3]
 1131 001a FFF7FEFF 		bl	__aeabi_dmul
 1132              	.LVL129:
 1133 001e 0022     		movs	r2, #0
 1134 0020 264B     		ldr	r3, .L98+12
 1135 0022 FFF7FEFF 		bl	__aeabi_ddiv
 1136              	.LVL130:
 1137 0026 FFF7FEFF 		bl	sin
 1138              	.LVL131:
 1139 002a 234D     		ldr	r5, .L98+8
 1140 002c FFF7FEFF 		bl	__aeabi_d2f
 1141              	.LVL132:
 1142 0030 45F82400 		str	r0, [r5, r4, lsl #2]	@ float
 270:main.c        ****     for (i = 0; i < 100; i++) {
 1143              		.loc 1 270 0 discriminator 3
 1144 0034 0134     		adds	r4, r4, #1
ARM GAS  C:\Users\Piimps\AppData\Local\Temp\ccJcthr3.s 			page 26


 1145 0036 C5F89041 		str	r4, [r5, #400]
 1146              	.L94:
 270:main.c        ****     for (i = 0; i < 100; i++) {
 1147              		.loc 1 270 0 is_stmt 0 discriminator 1
 1148 003a 1F4B     		ldr	r3, .L98+8
 1149 003c D3F89041 		ldr	r4, [r3, #400]
 1150 0040 632C     		cmp	r4, #99
 1151 0042 E4DD     		ble	.L95
 272:main.c        ****     }
 273:main.c        ****     i = 0;
 1152              		.loc 1 273 0 is_stmt 1
 1153 0044 0024     		movs	r4, #0
 1154 0046 C3F89041 		str	r4, [r3, #400]
 274:main.c        ****     isr_StartEx(Timer_Handler);
 1155              		.loc 1 274 0
 1156 004a 1D48     		ldr	r0, .L98+16
 1157 004c FFF7FEFF 		bl	isr_StartEx
 1158              	.LVL133:
 275:main.c        ****     pin_SW4_int_StartEx(SW4_Handler);
 1159              		.loc 1 275 0
 1160 0050 1C48     		ldr	r0, .L98+20
 1161 0052 FFF7FEFF 		bl	pin_SW4_int_StartEx
 1162              	.LVL134:
 276:main.c        ****     Timer_Stop();
 1163              		.loc 1 276 0
 1164 0056 FFF7FEFF 		bl	Timer_Stop
 1165              	.LVL135:
 277:main.c        ****     VDAC_Start();
 1166              		.loc 1 277 0
 1167 005a FFF7FEFF 		bl	VDAC_Start
 1168              	.LVL136:
 278:main.c        ****     VDAC_SetValue(0);
 1169              		.loc 1 278 0
 1170 005e 2046     		mov	r0, r4
 1171 0060 FFF7FEFF 		bl	VDAC_SetValue
 1172              	.LVL137:
 279:main.c        ****     PWM_Start();
 1173              		.loc 1 279 0
 1174 0064 FFF7FEFF 		bl	PWM_Start
 1175              	.LVL138:
 280:main.c        ****     ADC_Start();
 1176              		.loc 1 280 0
 1177 0068 FFF7FEFF 		bl	ADC_Start
 1178              	.LVL139:
 281:main.c        ****     ADC_StartConvert();
 1179              		.loc 1 281 0
 1180 006c FFF7FEFF 		bl	ADC_StartConvert
 1181              	.LVL140:
 282:main.c        ****     AMux_FastSelect(1);
 1182              		.loc 1 282 0
 1183 0070 0120     		movs	r0, #1
 1184 0072 FFF7FEFF 		bl	AMux_FastSelect
 1185              	.LVL141:
 283:main.c        ****     LCD_Start();
 1186              		.loc 1 283 0
 1187 0076 FFF7FEFF 		bl	LCD_Start
 1188              	.LVL142:
ARM GAS  C:\Users\Piimps\AppData\Local\Temp\ccJcthr3.s 			page 27


 284:main.c        ****     resetLed();
 1189              		.loc 1 284 0
 1190 007a FFF7FEFF 		bl	resetLed
 1191              	.LVL143:
 285:main.c        ****     // reset servo
 286:main.c        ****     PWM_WriteCompare1(7500);
 1192              		.loc 1 286 0
 1193 007e 41F64C50 		movw	r0, #7500
 1194 0082 FFF7FEFF 		bl	PWM_WriteCompare1
 1195              	.LVL144:
 287:main.c        ****     CyDelay(1000);
 1196              		.loc 1 287 0
 1197 0086 4FF47A70 		mov	r0, #1000
 1198 008a FFF7FEFF 		bl	CyDelay
 1199              	.LVL145:
 288:main.c        ****     PWM_WriteCompare2(7500);
 1200              		.loc 1 288 0
 1201 008e 41F64C50 		movw	r0, #7500
 1202 0092 FFF7FEFF 		bl	PWM_WriteCompare2
 1203              	.LVL146:
 1204              	.L96:
 289:main.c        ****     ////
 290:main.c        ****     for(;;)
 291:main.c        ****     {  
 292:main.c        ****         appuiSW1();
 1205              		.loc 1 292 0 discriminator 1
 1206 0096 FFF7FEFF 		bl	appuiSW1
 1207              	.LVL147:
 293:main.c        ****         appuiSW2();
 1208              		.loc 1 293 0 discriminator 1
 1209 009a FFF7FEFF 		bl	appuiSW2
 1210              	.LVL148:
 294:main.c        ****         appuiSW3();  
 1211              		.loc 1 294 0 discriminator 1
 1212 009e FFF7FEFF 		bl	appuiSW3
 1213              	.LVL149:
 295:main.c        ****         keyboard();
 1214              		.loc 1 295 0 discriminator 1
 1215 00a2 FFF7FEFF 		bl	keyboard
 1216              	.LVL150:
 296:main.c        ****         potentiometer();
 1217              		.loc 1 296 0 discriminator 1
 1218 00a6 FFF7FEFF 		bl	potentiometer
 1219              	.LVL151:
 1220 00aa F4E7     		b	.L96
 1221              	.L99:
 1222 00ac AFF30080 		.align	3
 1223              	.L98:
 1224 00b0 182D4454 		.word	1413754136
 1225 00b4 FB210940 		.word	1074340347
 1226 00b8 00000000 		.word	.LANCHOR0
 1227 00bc 00005940 		.word	1079574528
 1228 00c0 00000000 		.word	Timer_Handler
 1229 00c4 00000000 		.word	SW4_Handler
 1230              		.cfi_endproc
 1231              	.LFE82:
 1232              		.size	main, .-main
ARM GAS  C:\Users\Piimps\AppData\Local\Temp\ccJcthr3.s 			page 28


 1233              		.comm	adc_value_float,4,4
 1234              		.comm	lightOn,1,1
 1235              		.global	pressSW4
 1236              		.global	flag
 1237              		.global	clock2
 1238              		.global	clock
 1239              		.section	.rodata
 1240              		.align	2
 1241              		.set	.LANCHOR1,. + 0
 1242              	.LC0:
 1243 0000 00000000 		.word	0
 1244 0004 02000000 		.word	2
 1245 0008 00000000 		.word	0
 1246 000c 02000000 		.word	2
 1247 0010 00000000 		.word	0
 1248 0014 03000000 		.word	3
 1249 0018 01000000 		.word	1
 1250 001c 02000000 		.word	2
 1251 0020 01000000 		.word	1
 1252 0024 02000000 		.word	2
 1253 0028 01000000 		.word	1
 1254 002c 03000000 		.word	3
 1255 0030 00000000 		.word	0
 1256 0034 02000000 		.word	2
 1257 0038 00000000 		.word	0
 1258 003c 02000000 		.word	2
 1259 0040 00000000 		.word	0
 1260              	.LC1:
 1261 0044 01000000 		.word	1
 1262 0048 02000000 		.word	2
 1263 004c 00000000 		.word	0
 1264 0050 02000000 		.word	2
 1265 0054 00000000 		.word	0
 1266 0058 02000000 		.word	2
 1267 005c 00000000 		.word	0
 1268 0060 03000000 		.word	3
 1269 0064 00000000 		.word	0
 1270 0068 03000000 		.word	3
 1271 006c 00000000 		.word	0
 1272 0070 02000000 		.word	2
 1273 0074 01000000 		.word	1
 1274 0078 03000000 		.word	3
 1275 007c 01000000 		.word	1
 1276 0080 02000000 		.word	2
 1277 0084 01000000 		.word	1
 1278 0088 03000000 		.word	3
 1279 008c 00000000 		.word	0
 1280 0090 02000000 		.word	2
 1281 0094 00000000 		.word	0
 1282 0098 02000000 		.word	2
 1283 009c 00000000 		.word	0
 1284              		.section	.rodata.str1.4,"aMS",%progbits,1
 1285              		.align	2
 1286              	.LC2:
 1287 0000 534F5300 		.ascii	"SOS\000"
 1288              	.LC3:
 1289 0004 4245414D 		.ascii	"BEAMS\000"
ARM GAS  C:\Users\Piimps\AppData\Local\Temp\ccJcthr3.s 			page 29


 1289      5300
 1290              		.bss
 1291              		.align	2
 1292              		.set	.LANCHOR0,. + 0
 1293              		.type	signal, %object
 1294              		.size	signal, 400
 1295              	signal:
 1296 0000 00000000 		.space	400
 1296      00000000 
 1296      00000000 
 1296      00000000 
 1296      00000000 
 1297              		.type	i, %object
 1298              		.size	i, 4
 1299              	i:
 1300 0190 00000000 		.space	4
 1301              		.type	adc_value, %object
 1302              		.size	adc_value, 4
 1303              	adc_value:
 1304 0194 00000000 		.space	4
 1305              		.type	flag, %object
 1306              		.size	flag, 1
 1307              	flag:
 1308 0198 00       		.space	1
 1309 0199 000000   		.space	3
 1310              		.type	clock, %object
 1311              		.size	clock, 4
 1312              	clock:
 1313 019c 00000000 		.space	4
 1314              		.type	pressSW4, %object
 1315              		.size	pressSW4, 1
 1316              	pressSW4:
 1317 01a0 00       		.space	1
 1318 01a1 000000   		.space	3
 1319              		.type	clock2, %object
 1320              		.size	clock2, 4
 1321              	clock2:
 1322 01a4 00000000 		.space	4
 1323              		.text
 1324              	.Letext0:
 1325              		.file 2 "c:\\program files (x86)\\cypress\\psoc creator\\4.3\\psoc creator\\import\\gnu\\arm\\5.4.
 1326              		.file 3 "c:\\program files (x86)\\cypress\\psoc creator\\4.3\\psoc creator\\import\\gnu\\arm\\5.4.
 1327              		.file 4 "Generated_Source\\PSoC5/cytypes.h"
 1328              		.file 5 "Generated_Source\\PSoC5/core_cm3.h"
 1329              		.file 6 "Generated_Source\\PSoC5/VDAC.h"
 1330              		.file 7 "Generated_Source\\PSoC5/Timer.h"
 1331              		.file 8 "Generated_Source\\PSoC5/SW4.h"
 1332              		.file 9 "Generated_Source\\PSoC5/SW1.h"
 1333              		.file 10 "Generated_Source\\PSoC5/Led_1.h"
 1334              		.file 11 "Generated_Source\\PSoC5/Led_2.h"
 1335              		.file 12 "Generated_Source\\PSoC5/Led_3.h"
 1336              		.file 13 "Generated_Source\\PSoC5/Led_4.h"
 1337              		.file 14 "Generated_Source\\PSoC5/Timer_1.h"
 1338              		.file 15 "Generated_Source\\PSoC5/SW2.h"
 1339              		.file 16 "Generated_Source\\PSoC5/SW3.h"
 1340              		.file 17 "Generated_Source\\PSoC5/LCD.h"
 1341              		.file 18 "Generated_Source\\PSoC5/ADC.h"
ARM GAS  C:\Users\Piimps\AppData\Local\Temp\ccJcthr3.s 			page 30


 1342              		.file 19 "Generated_Source\\PSoC5/PWM.h"
 1343              		.file 20 "keypad.h"
 1344              		.file 21 "Generated_Source\\PSoC5/AMux.h"
 1345              		.file 22 "c:\\program files (x86)\\cypress\\psoc creator\\4.3\\psoc creator\\import\\gnu\\arm\\5.4
 1346              		.file 23 "Generated_Source\\PSoC5/isr.h"
 1347              		.file 24 "Generated_Source\\PSoC5/pin_SW4_int.h"
 1348              		.file 25 "Generated_Source\\PSoC5/CyLib.h"
 1349              		.file 26 "c:\\program files (x86)\\cypress\\psoc creator\\4.3\\psoc creator\\import\\gnu\\arm\\5.4