ARM GAS  C:\Users\Piimps\AppData\Local\Temp\cc7gaNMe.s 			page 1


   1              		.syntax unified
   2              		.cpu cortex-m3
   3              		.fpu softvfp
   4              		.eabi_attribute 20, 1
   5              		.eabi_attribute 21, 1
   6              		.eabi_attribute 23, 3
   7              		.eabi_attribute 24, 1
   8              		.eabi_attribute 25, 1
   9              		.eabi_attribute 26, 1
  10              		.eabi_attribute 30, 1
  11              		.eabi_attribute 34, 1
  12              		.eabi_attribute 18, 4
  13              		.thumb
  14              		.syntax unified
  15              		.file	"semaphore.c"
  16              		.text
  17              	.Ltext0:
  18              		.cfi_sections	.debug_frame
  19              		.global	__aeabi_i2d
  20              		.global	__aeabi_dmul
  21              		.global	__aeabi_dadd
  22              		.global	__aeabi_d2f
  23              		.section	.text.getSemaphore,"ax",%progbits
  24              		.align	2
  25              		.global	getSemaphore
  26              		.thumb
  27              		.thumb_func
  28              		.type	getSemaphore, %function
  29              	getSemaphore:
  30              	.LFB1:
  31              		.file 1 "semaphore.c"
   1:semaphore.c   **** /* ========================================
   2:semaphore.c   ****  * ULB - Digital Electronic : Project 2020 
   3:semaphore.c   ****  * 
   4:semaphore.c   ****  * Mathias Hanquiniaux
   5:semaphore.c   ****  * Tanguy Snoeck
   6:semaphore.c   ****  * Vladimir Tulcinsky
   7:semaphore.c   ****  *
   8:semaphore.c   ****  * ========================================
   9:semaphore.c   **** */
  10:semaphore.c   **** 
  11:semaphore.c   **** #include <stdio.h>
  12:semaphore.c   **** #include <stdlib.h>
  13:semaphore.c   **** #include <stdint.h>
  14:semaphore.c   **** #include <string.h>
  15:semaphore.c   **** 
  16:semaphore.c   **** float alpha[26]; // a -> z
  17:semaphore.c   **** float numbers[10]; // 0 -> 9
  18:semaphore.c   **** 
  19:semaphore.c   **** float getSemaphore(char lettertoTranslate) {
  32              		.loc 1 19 0
  33              		.cfi_startproc
  34              		@ args = 0, pretend = 0, frame = 0
  35              		@ frame_needed = 0, uses_anonymous_args = 0
  36              	.LVL0:
  37 0000 38B5     		push	{r3, r4, r5, lr}
  38              		.cfi_def_cfa_offset 16
ARM GAS  C:\Users\Piimps\AppData\Local\Temp\cc7gaNMe.s 			page 2


  39              		.cfi_offset 3, -16
  40              		.cfi_offset 4, -12
  41              		.cfi_offset 5, -8
  42              		.cfi_offset 14, -4
  43 0002 0546     		mov	r5, r0
  44              	.LVL1:
  45              	.LBB2:
  20:semaphore.c   ****     for(int x = 0; x < 26; x++) {
  46              		.loc 1 20 0
  47 0004 0024     		movs	r4, #0
  48 0006 12E0     		b	.L2
  49              	.LVL2:
  50              	.L3:
  21:semaphore.c   **** 	alpha[x] = 1500 + (x*166.66); // 7500 - 1500 = 6000
  51              		.loc 1 21 0 discriminator 3
  52 0008 2046     		mov	r0, r4
  53 000a FFF7FEFF 		bl	__aeabi_i2d
  54              	.LVL3:
  55 000e 1CA3     		adr	r3, .L9
  56 0010 D3E90023 		ldrd	r2, [r3]
  57 0014 FFF7FEFF 		bl	__aeabi_dmul
  58              	.LVL4:
  59 0018 1BA3     		adr	r3, .L9+8
  60 001a D3E90023 		ldrd	r2, [r3]
  61 001e FFF7FEFF 		bl	__aeabi_dadd
  62              	.LVL5:
  63 0022 FFF7FEFF 		bl	__aeabi_d2f
  64              	.LVL6:
  65 0026 1C4B     		ldr	r3, .L9+24
  66 0028 43F82400 		str	r0, [r3, r4, lsl #2]	@ float
  20:semaphore.c   ****     for(int x = 0; x < 26; x++) {
  67              		.loc 1 20 0 discriminator 3
  68 002c 0134     		adds	r4, r4, #1
  69              	.LVL7:
  70              	.L2:
  20:semaphore.c   ****     for(int x = 0; x < 26; x++) {
  71              		.loc 1 20 0 is_stmt 0 discriminator 1
  72 002e 192C     		cmp	r4, #25
  73 0030 EADD     		ble	.L3
  74 0032 0024     		movs	r4, #0
  75              	.LVL8:
  76 0034 12E0     		b	.L4
  77              	.LVL9:
  78              	.L5:
  79              	.LBE2:
  80              	.LBB3:
  22:semaphore.c   ****     }                             // 6000 / 36 = 166.66 (36 = 26 char + 10 numbers)
  23:semaphore.c   ****     for(int y = 0; y < 10; y++) {
  24:semaphore.c   ****     	numbers[y] = 5833.33 + (y*166.66);
  81              		.loc 1 24 0 is_stmt 1 discriminator 3
  82 0036 2046     		mov	r0, r4
  83 0038 FFF7FEFF 		bl	__aeabi_i2d
  84              	.LVL10:
  85 003c 10A3     		adr	r3, .L9
  86 003e D3E90023 		ldrd	r2, [r3]
  87 0042 FFF7FEFF 		bl	__aeabi_dmul
  88              	.LVL11:
ARM GAS  C:\Users\Piimps\AppData\Local\Temp\cc7gaNMe.s 			page 3


  89 0046 12A3     		adr	r3, .L9+16
  90 0048 D3E90023 		ldrd	r2, [r3]
  91 004c FFF7FEFF 		bl	__aeabi_dadd
  92              	.LVL12:
  93 0050 FFF7FEFF 		bl	__aeabi_d2f
  94              	.LVL13:
  95 0054 114B     		ldr	r3, .L9+28
  96 0056 43F82400 		str	r0, [r3, r4, lsl #2]	@ float
  23:semaphore.c   ****     	numbers[y] = 5833.33 + (y*166.66);
  97              		.loc 1 23 0 discriminator 3
  98 005a 0134     		adds	r4, r4, #1
  99              	.LVL14:
 100              	.L4:
  23:semaphore.c   ****     	numbers[y] = 5833.33 + (y*166.66);
 101              		.loc 1 23 0 is_stmt 0 discriminator 1
 102 005c 092C     		cmp	r4, #9
 103 005e EADD     		ble	.L5
 104              	.LBE3:
  25:semaphore.c   ****     }
  26:semaphore.c   **** 	int position = lettertoTranslate - '0';
 105              		.loc 1 26 0 is_stmt 1
 106 0060 A5F13003 		sub	r3, r5, #48
 107              	.LVL15:
  27:semaphore.c   **** 
  28:semaphore.c   **** 	if (position >= 0 && position <= 9)
 108              		.loc 1 28 0
 109 0064 092B     		cmp	r3, #9
 110 0066 03D8     		bhi	.L6
  29:semaphore.c   **** 		return numbers[position];
 111              		.loc 1 29 0
 112 0068 0C4A     		ldr	r2, .L9+28
 113 006a 52F82300 		ldr	r0, [r2, r3, lsl #2]	@ float
 114 006e 38BD     		pop	{r3, r4, r5, pc}
 115              	.LVL16:
 116              	.L6:
 117              	.LBB4:
  30:semaphore.c   **** 	else {
  31:semaphore.c   **** 		position = tolower(lettertoTranslate) - 'a';
 118              		.loc 1 31 0
 119 0070 2846     		mov	r0, r5
 120 0072 FFF7FEFF 		bl	tolower
 121              	.LVL17:
 122 0076 6138     		subs	r0, r0, #97
 123              	.LVL18:
  32:semaphore.c   **** 		return alpha[position];
 124              		.loc 1 32 0
 125 0078 074B     		ldr	r3, .L9+24
 126 007a 53F82000 		ldr	r0, [r3, r0, lsl #2]	@ float
 127              	.LVL19:
 128              	.LBE4:
  33:semaphore.c   **** 	}
  34:semaphore.c   **** }
 129              		.loc 1 34 0
 130 007e 38BD     		pop	{r3, r4, r5, pc}
 131              	.LVL20:
 132              	.L10:
 133              		.align	3
ARM GAS  C:\Users\Piimps\AppData\Local\Temp\cc7gaNMe.s 			page 4


 134              	.L9:
 135 0080 85EB51B8 		.word	-1202590843
 136 0084 1ED56440 		.word	1080349982
 137 0088 00000000 		.word	0
 138 008c 00709740 		.word	1083666432
 139 0090 AE47E17A 		.word	2061584302
 140 0094 54C9B640 		.word	1085720916
 141 0098 00000000 		.word	alpha
 142 009c 00000000 		.word	numbers
 143              		.cfi_endproc
 144              	.LFE1:
 145              		.size	getSemaphore, .-getSemaphore
 146              		.comm	numbers,40,4
 147              		.comm	alpha,104,4
 148              		.text
 149              	.Letext0:
 150              		.file 2 "<built-in>"